ARM GAS  C:\Users\awliu\AppData\Local\Temp\ccE46zSY.s 			page 1


   1              		.syntax unified
   2              		.cpu cortex-m0plus
   3              		.fpu softvfp
   4              		.eabi_attribute 20, 1
   5              		.eabi_attribute 21, 1
   6              		.eabi_attribute 23, 3
   7              		.eabi_attribute 24, 1
   8              		.eabi_attribute 25, 1
   9              		.eabi_attribute 26, 1
  10              		.eabi_attribute 30, 1
  11              		.eabi_attribute 34, 0
  12              		.eabi_attribute 18, 4
  13              		.thumb
  14              		.syntax unified
  15              		.file	"func_list.c"
  16              		.text
  17              	.Ltext0:
  18              		.cfi_sections	.debug_frame
  19              		.section	.text.get_func,"ax",%progbits
  20              		.align	2
  21              		.global	get_func
  22              		.code	16
  23              		.thumb_func
  24              		.type	get_func, %function
  25              	get_func:
  26              	.LFB778:
  27              		.file 1 "sources\\func_list\\func_list.c"
   1:sources\func_list/func_list.c **** #include "project.h"
   2:sources\func_list/func_list.c **** #include "stdio.h"
   3:sources\func_list/func_list.c **** #include "string.h"
   4:sources\func_list/func_list.c **** #include "tty_utils.h"
   5:sources\func_list/func_list.c **** #include "func_list.h"
   6:sources\func_list/func_list.c **** 
   7:sources\func_list/func_list.c **** func_ptr get_func(f_list_type *list, char *str)
   8:sources\func_list/func_list.c **** {
  28              		.loc 1 8 0
  29              		.cfi_startproc
  30              		@ args = 0, pretend = 0, frame = 24
  31              		@ frame_needed = 0, uses_anonymous_args = 0
  32              	.LVL0:
  33 0000 70B5     		push	{r4, r5, r6, lr}
  34              		.cfi_def_cfa_offset 16
  35              		.cfi_offset 4, -16
  36              		.cfi_offset 5, -12
  37              		.cfi_offset 6, -8
  38              		.cfi_offset 14, -4
  39 0002 86B0     		sub	sp, sp, #24
  40              		.cfi_def_cfa_offset 40
  41 0004 0600     		movs	r6, r0
  42 0006 0800     		movs	r0, r1
  43              	.LVL1:
   9:sources\func_list/func_list.c ****     int      i ;
  10:sources\func_list/func_list.c ****     func_ptr ptr = 0 ;
  11:sources\func_list/func_list.c ****     char cmd[CMD_LENGTH+1] ;
  12:sources\func_list/func_list.c ****     
  13:sources\func_list/func_list.c ****     sscanf(str, "%s", cmd) ;
  44              		.loc 1 13 0
ARM GAS  C:\Users\awliu\AppData\Local\Temp\ccE46zSY.s 			page 2


  45 0008 01AA     		add	r2, sp, #4
  46 000a 0A49     		ldr	r1, .L5
  47              	.LVL2:
  48 000c FFF7FEFF 		bl	sscanf
  49              	.LVL3:
  14:sources\func_list/func_list.c ****     for (i = 0 ; list[i].name ; i++ ) {
  50              		.loc 1 14 0
  51 0010 0025     		movs	r5, #0
  52 0012 05E0     		b	.L2
  53              	.LVL4:
  54              	.L4:
  15:sources\func_list/func_list.c ****         if (strcmp(list[i].name, cmd) == 0) {
  55              		.loc 1 15 0
  56 0014 01A9     		add	r1, sp, #4
  57 0016 FFF7FEFF 		bl	strcmp
  58              	.LVL5:
  59 001a 0028     		cmp	r0, #0
  60 001c 07D0     		beq	.L3
  14:sources\func_list/func_list.c ****     for (i = 0 ; list[i].name ; i++ ) {
  61              		.loc 1 14 0 discriminator 2
  62 001e 0135     		adds	r5, r5, #1
  63              	.LVL6:
  64              	.L2:
  14:sources\func_list/func_list.c ****     for (i = 0 ; list[i].name ; i++ ) {
  65              		.loc 1 14 0 is_stmt 0 discriminator 1
  66 0020 6A00     		lsls	r2, r5, #1
  67 0022 5219     		adds	r2, r2, r5
  68 0024 9300     		lsls	r3, r2, #2
  69 0026 F418     		adds	r4, r6, r3
  70 0028 2068     		ldr	r0, [r4]
  71 002a 0028     		cmp	r0, #0
  72 002c F2D1     		bne	.L4
  73              	.L3:
  16:sources\func_list/func_list.c ****             break ;
  17:sources\func_list/func_list.c ****         }
  18:sources\func_list/func_list.c ****     }
  19:sources\func_list/func_list.c ****     ptr = list[i].func ;
  74              		.loc 1 19 0 is_stmt 1
  75 002e 6068     		ldr	r0, [r4, #4]
  76              	.LVL7:
  20:sources\func_list/func_list.c ****     
  21:sources\func_list/func_list.c ****     return( ptr ) ;
  22:sources\func_list/func_list.c **** }
  77              		.loc 1 22 0
  78 0030 06B0     		add	sp, sp, #24
  79              		@ sp needed
  80              	.LVL8:
  81              	.LVL9:
  82 0032 70BD     		pop	{r4, r5, r6, pc}
  83              	.L6:
  84              		.align	2
  85              	.L5:
  86 0034 00000000 		.word	.LC0
  87              		.cfi_endproc
  88              	.LFE778:
  89              		.size	get_func, .-get_func
  90              		.section	.text.show_help,"ax",%progbits
ARM GAS  C:\Users\awliu\AppData\Local\Temp\ccE46zSY.s 			page 3


  91              		.align	2
  92              		.global	show_help
  93              		.code	16
  94              		.thumb_func
  95              		.type	show_help, %function
  96              	show_help:
  97              	.LFB779:
  23:sources\func_list/func_list.c **** 
  24:sources\func_list/func_list.c **** void show_help(f_list_type *list)
  25:sources\func_list/func_list.c **** {
  98              		.loc 1 25 0
  99              		.cfi_startproc
 100              		@ args = 0, pretend = 0, frame = 0
 101              		@ frame_needed = 0, uses_anonymous_args = 0
 102              	.LVL10:
 103 0000 70B5     		push	{r4, r5, r6, lr}
 104              		.cfi_def_cfa_offset 16
 105              		.cfi_offset 4, -16
 106              		.cfi_offset 5, -12
 107              		.cfi_offset 6, -8
 108              		.cfi_offset 14, -4
 109 0002 0600     		movs	r6, r0
  26:sources\func_list/func_list.c ****     int i ;
  27:sources\func_list/func_list.c ****     
  28:sources\func_list/func_list.c ****     print("=== command ===\n\r") ;
 110              		.loc 1 28 0
 111 0004 0D48     		ldr	r0, .L10
 112              	.LVL11:
 113 0006 FFF7FEFF 		bl	print
 114              	.LVL12:
  29:sources\func_list/func_list.c ****     for (i = 0 ; list[i].name ; i++ ) {
 115              		.loc 1 29 0
 116 000a 0025     		movs	r5, #0
 117 000c 0BE0     		b	.L8
 118              	.LVL13:
 119              	.L9:
  30:sources\func_list/func_list.c ****         print(list[i].name) ;
 120              		.loc 1 30 0 discriminator 3
 121 000e FFF7FEFF 		bl	print
 122              	.LVL14:
  31:sources\func_list/func_list.c ****         print(" : ") ;
 123              		.loc 1 31 0 discriminator 3
 124 0012 0B48     		ldr	r0, .L10+4
 125 0014 FFF7FEFF 		bl	print
 126              	.LVL15:
  32:sources\func_list/func_list.c ****         print(list[i].description) ;
 127              		.loc 1 32 0 discriminator 3
 128 0018 A068     		ldr	r0, [r4, #8]
 129 001a FFF7FEFF 		bl	print
 130              	.LVL16:
  33:sources\func_list/func_list.c ****         print("\n\r") ;
 131              		.loc 1 33 0 discriminator 3
 132 001e 0948     		ldr	r0, .L10+8
 133 0020 FFF7FEFF 		bl	print
 134              	.LVL17:
  29:sources\func_list/func_list.c ****         print(list[i].name) ;
 135              		.loc 1 29 0 discriminator 3
ARM GAS  C:\Users\awliu\AppData\Local\Temp\ccE46zSY.s 			page 4


 136 0024 0135     		adds	r5, r5, #1
 137              	.LVL18:
 138              	.L8:
  29:sources\func_list/func_list.c ****         print(list[i].name) ;
 139              		.loc 1 29 0 is_stmt 0 discriminator 1
 140 0026 6A00     		lsls	r2, r5, #1
 141 0028 5219     		adds	r2, r2, r5
 142 002a 9300     		lsls	r3, r2, #2
 143 002c F418     		adds	r4, r6, r3
 144 002e 2068     		ldr	r0, [r4]
 145 0030 0028     		cmp	r0, #0
 146 0032 ECD1     		bne	.L9
  34:sources\func_list/func_list.c ****     }
  35:sources\func_list/func_list.c ****     print("===============\n\r") ;    
 147              		.loc 1 35 0 is_stmt 1
 148 0034 0448     		ldr	r0, .L10+12
 149 0036 FFF7FEFF 		bl	print
 150              	.LVL19:
  36:sources\func_list/func_list.c **** }...
 151              		.loc 1 36 0
 152              		@ sp needed
 153              	.LVL20:
 154              	.LVL21:
 155 003a 70BD     		pop	{r4, r5, r6, pc}
 156              	.L11:
 157              		.align	2
 158              	.L10:
 159 003c 04000000 		.word	.LC2
 160 0040 18000000 		.word	.LC4
 161 0044 1C000000 		.word	.LC6
 162 0048 20000000 		.word	.LC8
 163              		.cfi_endproc
 164              	.LFE779:
 165              		.size	show_help, .-show_help
 166              		.section	.rodata.str1.4,"aMS",%progbits,1
 167              		.align	2
 168              	.LC0:
 169 0000 257300   		.ascii	"%s\000"
 170 0003 00       		.space	1
 171              	.LC2:
 172 0004 3D3D3D20 		.ascii	"=== command ===\012\015\000"
 172      636F6D6D 
 172      616E6420 
 172      3D3D3D0A 
 172      0D00
 173 0016 0000     		.space	2
 174              	.LC4:
 175 0018 203A2000 		.ascii	" : \000"
 176              	.LC6:
 177 001c 0A0D00   		.ascii	"\012\015\000"
 178 001f 00       		.space	1
 179              	.LC8:
 180 0020 3D3D3D3D 		.ascii	"===============\012\015\000"
 180      3D3D3D3D 
 180      3D3D3D3D 
 180      3D3D3D0A 
 180      0D00
ARM GAS  C:\Users\awliu\AppData\Local\Temp\ccE46zSY.s 			page 5


 181              		.text
 182              	.Letext0:
 183              		.file 2 "c:\\program files (x86)\\cypress\\psoc creator\\4.4\\psoc creator\\import\\gnu\\arm\\5.4.
 184              		.file 3 "c:\\program files (x86)\\cypress\\psoc creator\\4.4\\psoc creator\\import\\gnu\\arm\\5.4.
 185              		.file 4 "Generated_Source\\PSoC6\\pdl\\drivers/peripheral/device/cy_device.h"
 186              		.file 5 "Generated_Source\\PSoC6\\pdl\\drivers/peripheral/sar/cy_sar.h"
 187              		.file 6 "Generated_Source\\PSoC6\\pdl\\drivers/peripheral/scb/cy_scb_i2c.h"
 188              		.file 7 "Generated_Source\\PSoC6\\pdl\\drivers/peripheral/scb/cy_scb_uart.h"
 189              		.file 8 "Generated_Source\\PSoC6\\pdl\\drivers/peripheral/tcpwm/cy_tcpwm_pwm.h"
 190              		.file 9 "Generated_Source\\PSoC6/ADC.h"
 191              		.file 10 "sources\\func_list\\func_list.h"
 192              		.file 11 "Generated_Source\\PSoC6/UART.h"
 193              		.file 12 "Generated_Source\\PSoC6/I2C.h"
 194              		.file 13 "Generated_Source\\PSoC6/PWM_1.h"
 195              		.file 14 "Generated_Source\\PSoC6/PWM_2.h"
 196              		.file 15 "Generated_Source\\PSoC6/PWM_3.h"
 197              		.file 16 "Generated_Source\\PSoC6/PWM_4.h"
 198              		.file 17 "Generated_Source\\PSoC6/PWM_5.h"
 199              		.file 18 "Generated_Source\\PSoC6/PWM_6.h"
 200              		.file 19 "Generated_Source\\PSoC6/PWM_7.h"
 201              		.file 20 "Generated_Source\\PSoC6/PWM_8.h"
 202              		.file 21 "Generated_Source\\PSoC6/PWM_9.h"
 203              		.file 22 "c:\\program files (x86)\\cypress\\psoc creator\\4.4\\psoc creator\\import\\gnu\\arm\\5.4
 204              		.file 23 "c:\\program files (x86)\\cypress\\psoc creator\\4.4\\psoc creator\\import\\gnu\\arm\\5.4
 205              		.file 24 ".\\sources\\tty/tty_utils.h"