ARM GAS  C:\Users\awliu\AppData\Local\Temp\ccUSUZkw.s 			page 1


   1              		.syntax unified
   2              		.cpu cortex-m4
   3              		.eabi_attribute 27, 1
   4              		.fpu fpv4-sp-d16
   5              		.eabi_attribute 20, 1
   6              		.eabi_attribute 21, 1
   7              		.eabi_attribute 23, 3
   8              		.eabi_attribute 24, 1
   9              		.eabi_attribute 25, 1
  10              		.eabi_attribute 26, 1
  11              		.eabi_attribute 30, 1
  12              		.eabi_attribute 34, 1
  13              		.eabi_attribute 18, 4
  14              		.thumb
  15              		.syntax unified
  16              		.file	"func_list.c"
  17              		.text
  18              	.Ltext0:
  19              		.cfi_sections	.debug_frame
  20              		.section	.text.get_func,"ax",%progbits
  21              		.align	2
  22              		.global	get_func
  23              		.thumb
  24              		.thumb_func
  25              		.type	get_func, %function
  26              	get_func:
  27              	.LFB866:
  28              		.file 1 "sources\\func_list\\func_list.c"
   1:sources\func_list/func_list.c **** #include "project.h"
   2:sources\func_list/func_list.c **** #include "stdio.h"
   3:sources\func_list/func_list.c **** #include "string.h"
   4:sources\func_list/func_list.c **** #include "tty_utils.h"
   5:sources\func_list/func_list.c **** #include "func_list.h"
   6:sources\func_list/func_list.c **** 
   7:sources\func_list/func_list.c **** func_ptr get_func(f_list_type *list, char *str)
   8:sources\func_list/func_list.c **** {
  29              		.loc 1 8 0
  30              		.cfi_startproc
  31              		@ args = 0, pretend = 0, frame = 24
  32              		@ frame_needed = 0, uses_anonymous_args = 0
  33              	.LVL0:
  34 0000 70B5     		push	{r4, r5, r6, lr}
  35              		.cfi_def_cfa_offset 16
  36              		.cfi_offset 4, -16
  37              		.cfi_offset 5, -12
  38              		.cfi_offset 6, -8
  39              		.cfi_offset 14, -4
  40 0002 86B0     		sub	sp, sp, #24
  41              		.cfi_def_cfa_offset 40
  42 0004 0546     		mov	r5, r0
  43 0006 0846     		mov	r0, r1
  44              	.LVL1:
   9:sources\func_list/func_list.c ****     int      i ;
  10:sources\func_list/func_list.c ****     func_ptr ptr = 0 ;
  11:sources\func_list/func_list.c ****     char cmd[CMD_LENGTH+1] ;
  12:sources\func_list/func_list.c ****     
  13:sources\func_list/func_list.c ****     sscanf(str, "%s", cmd) ;
ARM GAS  C:\Users\awliu\AppData\Local\Temp\ccUSUZkw.s 			page 2


  45              		.loc 1 13 0
  46 0008 01AA     		add	r2, sp, #4
  47 000a 0A49     		ldr	r1, .L6
  48              	.LVL2:
  49 000c FFF7FEFF 		bl	sscanf
  50              	.LVL3:
  14:sources\func_list/func_list.c ****     for (i = 0 ; list[i].name ; i++ ) {
  51              		.loc 1 14 0
  52 0010 0024     		movs	r4, #0
  53 0012 04E0     		b	.L2
  54              	.LVL4:
  55              	.L4:
  15:sources\func_list/func_list.c ****         if (strcmp(list[i].name, cmd) == 0) {
  56              		.loc 1 15 0
  57 0014 01A9     		add	r1, sp, #4
  58 0016 FFF7FEFF 		bl	strcmp
  59              	.LVL5:
  60 001a 38B1     		cbz	r0, .L3
  14:sources\func_list/func_list.c ****     for (i = 0 ; list[i].name ; i++ ) {
  61              		.loc 1 14 0 discriminator 2
  62 001c 0134     		adds	r4, r4, #1
  63              	.LVL6:
  64              	.L2:
  14:sources\func_list/func_list.c ****     for (i = 0 ; list[i].name ; i++ ) {
  65              		.loc 1 14 0 is_stmt 0 discriminator 1
  66 001e 04EB4402 		add	r2, r4, r4, lsl #1
  67 0022 9300     		lsls	r3, r2, #2
  68 0024 EE18     		adds	r6, r5, r3
  69 0026 E858     		ldr	r0, [r5, r3]
  70 0028 0028     		cmp	r0, #0
  71 002a F3D1     		bne	.L4
  72              	.L3:
  73              	.LVL7:
  16:sources\func_list/func_list.c ****             break ;
  17:sources\func_list/func_list.c ****         }
  18:sources\func_list/func_list.c ****     }
  19:sources\func_list/func_list.c ****     ptr = list[i].func ;
  20:sources\func_list/func_list.c ****     
  21:sources\func_list/func_list.c ****     return( ptr ) ;
  22:sources\func_list/func_list.c **** }
  74              		.loc 1 22 0 is_stmt 1
  75 002c 7068     		ldr	r0, [r6, #4]
  76 002e 06B0     		add	sp, sp, #24
  77              		.cfi_def_cfa_offset 16
  78              		@ sp needed
  79 0030 70BD     		pop	{r4, r5, r6, pc}
  80              	.LVL8:
  81              	.L7:
  82 0032 00BF     		.align	2
  83              	.L6:
  84 0034 00000000 		.word	.LC0
  85              		.cfi_endproc
  86              	.LFE866:
  87              		.size	get_func, .-get_func
  88              		.section	.text.show_help,"ax",%progbits
  89              		.align	2
  90              		.global	show_help
ARM GAS  C:\Users\awliu\AppData\Local\Temp\ccUSUZkw.s 			page 3


  91              		.thumb
  92              		.thumb_func
  93              		.type	show_help, %function
  94              	show_help:
  95              	.LFB867:
  23:sources\func_list/func_list.c **** 
  24:sources\func_list/func_list.c **** void show_help(f_list_type *list)
  25:sources\func_list/func_list.c **** {
  96              		.loc 1 25 0
  97              		.cfi_startproc
  98              		@ args = 0, pretend = 0, frame = 0
  99              		@ frame_needed = 0, uses_anonymous_args = 0
 100              	.LVL9:
 101 0000 70B5     		push	{r4, r5, r6, lr}
 102              		.cfi_def_cfa_offset 16
 103              		.cfi_offset 4, -16
 104              		.cfi_offset 5, -12
 105              		.cfi_offset 6, -8
 106              		.cfi_offset 14, -4
 107 0002 0546     		mov	r5, r0
  26:sources\func_list/func_list.c ****     int i ;
  27:sources\func_list/func_list.c ****     
  28:sources\func_list/func_list.c ****     print("=== command ===\n\r") ;
 108              		.loc 1 28 0
 109 0004 0D48     		ldr	r0, .L12
 110              	.LVL10:
 111 0006 FFF7FEFF 		bl	print
 112              	.LVL11:
  29:sources\func_list/func_list.c ****     for (i = 0 ; list[i].name ; i++ ) {
 113              		.loc 1 29 0
 114 000a 0024     		movs	r4, #0
 115 000c 0BE0     		b	.L9
 116              	.LVL12:
 117              	.L10:
  30:sources\func_list/func_list.c ****         print(list[i].name) ;
 118              		.loc 1 30 0 discriminator 3
 119 000e FFF7FEFF 		bl	print
 120              	.LVL13:
  31:sources\func_list/func_list.c ****         print(" : ") ;
 121              		.loc 1 31 0 discriminator 3
 122 0012 0B48     		ldr	r0, .L12+4
 123 0014 FFF7FEFF 		bl	print
 124              	.LVL14:
  32:sources\func_list/func_list.c ****         print(list[i].description) ;
 125              		.loc 1 32 0 discriminator 3
 126 0018 B068     		ldr	r0, [r6, #8]
 127 001a FFF7FEFF 		bl	print
 128              	.LVL15:
  33:sources\func_list/func_list.c ****         print("\n\r") ;
 129              		.loc 1 33 0 discriminator 3
 130 001e 0948     		ldr	r0, .L12+8
 131 0020 FFF7FEFF 		bl	print
 132              	.LVL16:
  29:sources\func_list/func_list.c ****         print(list[i].name) ;
 133              		.loc 1 29 0 discriminator 3
 134 0024 0134     		adds	r4, r4, #1
 135              	.LVL17:
ARM GAS  C:\Users\awliu\AppData\Local\Temp\ccUSUZkw.s 			page 4


 136              	.L9:
  29:sources\func_list/func_list.c ****         print(list[i].name) ;
 137              		.loc 1 29 0 is_stmt 0 discriminator 1
 138 0026 04EB4402 		add	r2, r4, r4, lsl #1
 139 002a 9300     		lsls	r3, r2, #2
 140 002c EE18     		adds	r6, r5, r3
 141 002e E858     		ldr	r0, [r5, r3]
 142 0030 0028     		cmp	r0, #0
 143 0032 ECD1     		bne	.L10
  34:sources\func_list/func_list.c ****     }
  35:sources\func_list/func_list.c ****     print("===============\n\r") ;    
 144              		.loc 1 35 0 is_stmt 1
 145 0034 0448     		ldr	r0, .L12+12
 146 0036 FFF7FEFF 		bl	print
 147              	.LVL18:
 148 003a 70BD     		pop	{r4, r5, r6, pc}
 149              	.LVL19:
 150              	.L13:
 151              		.align	2
 152              	.L12:
 153 003c 04000000 		.word	.LC1
 154 0040 18000000 		.word	.LC2
 155 0044 1C000000 		.word	.LC3
 156 0048 20000000 		.word	.LC4
 157              		.cfi_endproc
 158              	.LFE867:
 159              		.size	show_help, .-show_help
 160              		.section	.rodata.str1.4,"aMS",%progbits,1
 161              		.align	2
 162              	.LC0:
 163 0000 257300   		.ascii	"%s\000"
 164 0003 00       		.space	1
 165              	.LC1:
 166 0004 3D3D3D20 		.ascii	"=== command ===\012\015\000"
 166      636F6D6D 
 166      616E6420 
 166      3D3D3D0A 
 166      0D00
 167 0016 0000     		.space	2
 168              	.LC2:
 169 0018 203A2000 		.ascii	" : \000"
 170              	.LC3:
 171 001c 0A0D00   		.ascii	"\012\015\000"
 172 001f 00       		.space	1
 173              	.LC4:
 174 0020 3D3D3D3D 		.ascii	"===============\012\015\000"
 174      3D3D3D3D 
 174      3D3D3D3D 
 174      3D3D3D0A 
 174      0D00
 175              		.text
 176              	.Letext0:
 177              		.file 2 "c:\\program files (x86)\\cypress\\psoc creator\\4.4\\psoc creator\\import\\gnu\\arm\\5.4.
 178              		.file 3 "c:\\program files (x86)\\cypress\\psoc creator\\4.4\\psoc creator\\import\\gnu\\arm\\5.4.
 179              		.file 4 "Generated_Source\\PSoC6\\pdl\\drivers/peripheral/device/cy_device.h"
 180              		.file 5 "Generated_Source\\PSoC6\\pdl\\drivers/peripheral/sar/cy_sar.h"
 181              		.file 6 "Generated_Source\\PSoC6\\pdl\\drivers/peripheral/scb/cy_scb_i2c.h"
ARM GAS  C:\Users\awliu\AppData\Local\Temp\ccUSUZkw.s 			page 5


 182              		.file 7 "Generated_Source\\PSoC6\\pdl\\drivers/peripheral/scb/cy_scb_uart.h"
 183              		.file 8 "Generated_Source\\PSoC6\\pdl\\drivers/peripheral/tcpwm/cy_tcpwm_pwm.h"
 184              		.file 9 "Generated_Source\\PSoC6/ADC.h"
 185              		.file 10 "sources\\func_list\\func_list.h"
 186              		.file 11 "Generated_Source\\PSoC6\\pdl\\cmsis/include/core_cm4.h"
 187              		.file 12 "Generated_Source\\PSoC6/UART.h"
 188              		.file 13 "Generated_Source\\PSoC6/I2C.h"
 189              		.file 14 "Generated_Source\\PSoC6/PWM_1.h"
 190              		.file 15 "Generated_Source\\PSoC6/PWM_2.h"
 191              		.file 16 "Generated_Source\\PSoC6/PWM_3.h"
 192              		.file 17 "Generated_Source\\PSoC6/PWM_4.h"
 193              		.file 18 "Generated_Source\\PSoC6/PWM_5.h"
 194              		.file 19 "Generated_Source\\PSoC6/PWM_6.h"
 195              		.file 20 "Generated_Source\\PSoC6/PWM_7.h"
 196              		.file 21 "Generated_Source\\PSoC6/PWM_8.h"
 197              		.file 22 "Generated_Source\\PSoC6/PWM_9.h"
 198              		.file 23 "c:\\program files (x86)\\cypress\\psoc creator\\4.4\\psoc creator\\import\\gnu\\arm\\5.4
 199              		.file 24 "c:\\program files (x86)\\cypress\\psoc creator\\4.4\\psoc creator\\import\\gnu\\arm\\5.4
 200              		.file 25 ".\\sources\\tty/tty_utils.h"